; Function Attrs: nounwind uwtable
define ptr @l_Lean_Compiler_LCNF_Testing_InOutAssertionM_run___rarg(ptr noundef %0, ptr noundef %1, ptr noundef %2, ptr noundef %3, ptr noundef %4, ptr noundef %5, ptr noundef %6, ptr noundef %7, ptr noundef %8, ptr noundef %9) #0 {
  tail call void @lean_inc_heartbeat() #5
  %11 = tail call noalias ptr @mi_malloc_small(i64 noundef 24) #5
  %12 = icmp eq ptr %11, null
  br i1 %12, label %13, label %lean_alloc_ctor.exit

13:                                               ; preds = %10
  tail call void @lean_internal_panic_out_of_memory() #6
  unreachable

lean_alloc_ctor.exit:                             ; preds = %10
  %14 = getelementptr inbounds nuw i8, ptr %11, i64 4
  store i32 1, ptr %11, align 4, !tbaa !9
  store i32 131096, ptr %14, align 4
  %15 = getelementptr inbounds nuw i8, ptr %11, i64 8
  store ptr %1, ptr %15, align 8, !tbaa !7
  %16 = getelementptr inbounds nuw i8, ptr %11, i64 16
  store ptr %2, ptr %16, align 8, !tbaa !7
  tail call void @lean_inc_heartbeat() #5
  %17 = tail call noalias ptr @mi_malloc_small(i64 noundef 24) #5
  %18 = icmp eq ptr %17, null
  br i1 %18, label %19, label %lean_alloc_ctor.exit17

19:                                               ; preds = %lean_alloc_ctor.exit
  tail call void @lean_internal_panic_out_of_memory() #6
  unreachable

lean_alloc_ctor.exit17:                           ; preds = %lean_alloc_ctor.exit
  %20 = getelementptr inbounds nuw i8, ptr %17, i64 4
  store i32 1, ptr %17, align 4, !tbaa !9
  store i32 131096, ptr %20, align 4
  %21 = getelementptr inbounds nuw i8, ptr %17, i64 8
  store ptr %3, ptr %21, align 8, !tbaa !7
  %22 = getelementptr inbounds nuw i8, ptr %17, i64 16
  store ptr %4, ptr %22, align 8, !tbaa !7
  %23 = tail call ptr @lean_apply_7(ptr noundef %0, ptr noundef nonnull %11, ptr noundef nonnull %17, ptr noundef %5, ptr noundef %6, ptr noundef %7, ptr noundef %8, ptr noundef %9) #5
  ret ptr %23
}